target datalayout = "e-m:e-p270:32:32-p271:32:32-p272:64:64-i64:64-i128:128-f80:128-n8:16:32:64-S128"
target triple = "x86_64-pc-linux-gnu"

%struct.AVPacket = type { ptr, i64, i64, ptr, i32, i32, i32, ptr, i32, i64, i64, ptr, ptr, %struct.AVRational }
%struct.AVRational = type { i32, i32 }
%struct.MpegTSContext = type { ptr, ptr, i32, i64, i32, i32, i32, i64, i64, i32, ptr, i64, i32, i32, i32, i32, i32, i32, i32, i32, i32, ptr, [8192 x i8], [8192 x ptr], i32, ptr, [32 x ptr] }
%struct.AVFormatContext = type { ptr, ptr, ptr, ptr, ptr, i32, i32, ptr, i32, ptr, i32, ptr, ptr, i64, i64, i64, i32, i32, i32, i64, i64, ptr, i32, i32, ptr, i32, i32, i32, i32, ptr, i64, i32, i32, %struct.AVIOInterruptCB, i32, i32, i32, i32, i64, i32, i32, i32, i32, i32, i32, i32, i32, i32, i32, i32, i32, i64, i32, i32, i32, i32, i32, ptr, ptr, ptr, ptr, i32, ptr, ptr, ptr, ptr, i32, ptr, ptr, i64, ptr, ptr, ptr, i64 }
%struct.AVIOInterruptCB = type { ptr, ptr }

; Function Attrs: alwaysinline nounwind willreturn memory(none) uwtable
define internal i32 @av_bswap32(i32 noundef %0) #7 {
  %2 = alloca i32, align 4
  store i32 %0, ptr %2, align 4, !tbaa !11
  %3 = load i32, ptr %2, align 4, !tbaa !11
  %4 = shl i32 %3, 8
  %5 = and i32 %4, 65280
  %6 = load i32, ptr %2, align 4, !tbaa !11
  %7 = lshr i32 %6, 8
  %8 = and i32 %7, 255
  %9 = or i32 %5, %8
  %10 = shl i32 %9, 16
  %11 = load i32, ptr %2, align 4, !tbaa !11
  %12 = lshr i32 %11, 16
  %13 = shl i32 %12, 8
  %14 = and i32 %13, 65280
  %15 = load i32, ptr %2, align 4, !tbaa !11
  %16 = lshr i32 %15, 16
  %17 = lshr i32 %16, 8
  %18 = and i32 %17, 255
  %19 = or i32 %14, %18
  %20 = or i32 %10, %19
  ret i32 %20
}

; Function Attrs: nounwind uwtable
define internal i32 @parse_pcr(ptr noundef %0, ptr noundef %1, ptr noundef %2) #0 {
  %4 = alloca i32, align 4
  %5 = alloca ptr, align 8
  %6 = alloca ptr, align 8
  %7 = alloca ptr, align 8
  %8 = alloca i32, align 4
  %9 = alloca i32, align 4
  %10 = alloca i32, align 4
  %11 = alloca ptr, align 8
  %12 = alloca i32, align 4
  %13 = alloca i32, align 4
  store ptr %0, ptr %5, align 8, !tbaa !196
  store ptr %1, ptr %6, align 8, !tbaa !213
  store ptr %2, ptr %7, align 8, !tbaa !16
  call void @llvm.lifetime.start.p0(i64 4, ptr %8) #12
  call void @llvm.lifetime.start.p0(i64 4, ptr %9) #12
  call void @llvm.lifetime.start.p0(i64 4, ptr %10) #12
  call void @llvm.lifetime.start.p0(i64 8, ptr %11) #12
  call void @llvm.lifetime.start.p0(i64 4, ptr %12) #12
  %14 = load ptr, ptr %7, align 8, !tbaa !16
  %15 = getelementptr inbounds i8, ptr %14, i64 3
  %16 = load i8, ptr %15, align 1, !tbaa !66
  %17 = zext i8 %16 to i32
  %18 = ashr i32 %17, 4
  %19 = and i32 %18, 3
  store i32 %19, ptr %8, align 4, !tbaa !11
  %20 = load i32, ptr %8, align 4, !tbaa !11
  %21 = icmp sle i32 %20, 1
  br i1 %21, label %22, label %23

22:                                               ; preds = %3
  store i32 -1094995529, ptr %4, align 4
  store i32 1, ptr %13, align 4
  br label %77

23:                                               ; preds = %3
  %24 = load ptr, ptr %7, align 8, !tbaa !16
  %25 = getelementptr inbounds i8, ptr %24, i64 4
  store ptr %25, ptr %11, align 8, !tbaa !16
  %26 = load ptr, ptr %11, align 8, !tbaa !16
  %27 = getelementptr inbounds i8, ptr %26, i64 0
  %28 = load i8, ptr %27, align 1, !tbaa !66
  %29 = zext i8 %28 to i32
  store i32 %29, ptr %9, align 4, !tbaa !11
  %30 = load ptr, ptr %11, align 8, !tbaa !16
  %31 = getelementptr inbounds nuw i8, ptr %30, i32 1
  store ptr %31, ptr %11, align 8, !tbaa !16
  %32 = load i32, ptr %9, align 4, !tbaa !11
  %33 = icmp eq i32 %32, 0
  br i1 %33, label %34, label %35

34:                                               ; preds = %23
  store i32 -1094995529, ptr %4, align 4
  store i32 1, ptr %13, align 4
  br label %77

35:                                               ; preds = %23
  %36 = load ptr, ptr %11, align 8, !tbaa !16
  %37 = getelementptr inbounds nuw i8, ptr %36, i32 1
  store ptr %37, ptr %11, align 8, !tbaa !16
  %38 = load i8, ptr %36, align 1, !tbaa !66
  %39 = zext i8 %38 to i32
  store i32 %39, ptr %10, align 4, !tbaa !11
  %40 = load i32, ptr %9, align 4, !tbaa !11
  %41 = add nsw i32 %40, -1
  store i32 %41, ptr %9, align 4, !tbaa !11
  %42 = load i32, ptr %10, align 4, !tbaa !11
  %43 = and i32 %42, 16
  %44 = icmp ne i32 %43, 0
  br i1 %44, label %46, label %45

45:                                               ; preds = %35
  store i32 -1094995529, ptr %4, align 4
  store i32 1, ptr %13, align 4
  br label %77

46:                                               ; preds = %35
  %47 = load i32, ptr %9, align 4, !tbaa !11
  %48 = icmp slt i32 %47, 6
  br i1 %48, label %49, label %50

49:                                               ; preds = %46
  store i32 -1094995529, ptr %4, align 4
  store i32 1, ptr %13, align 4
  br label %77

50:                                               ; preds = %46
  %51 = load ptr, ptr %11, align 8, !tbaa !16
  %52 = load i32, ptr %51, align 1, !tbaa !66
  %53 = call i32 @av_bswap32(i32 noundef %52) #14
  store i32 %53, ptr %12, align 4, !tbaa !11
  %54 = load i32, ptr %12, align 4, !tbaa !11
  %55 = zext i32 %54 to i64
  %56 = shl i64 %55, 1
  %57 = load ptr, ptr %11, align 8, !tbaa !16
  %58 = getelementptr inbounds i8, ptr %57, i64 4
  %59 = load i8, ptr %58, align 1, !tbaa !66
  %60 = zext i8 %59 to i32
  %61 = ashr i32 %60, 7
  %62 = sext i32 %61 to i64
  %63 = or i64 %56, %62
  %64 = load ptr, ptr %5, align 8, !tbaa !196
  store i64 %63, ptr %64, align 8, !tbaa !90
  %65 = load ptr, ptr %11, align 8, !tbaa !16
  %66 = getelementptr inbounds i8, ptr %65, i64 4
  %67 = load i8, ptr %66, align 1, !tbaa !66
  %68 = zext i8 %67 to i32
  %69 = and i32 %68, 1
  %70 = shl i32 %69, 8
  %71 = load ptr, ptr %11, align 8, !tbaa !16
  %72 = getelementptr inbounds i8, ptr %71, i64 5
  %73 = load i8, ptr %72, align 1, !tbaa !66
  %74 = zext i8 %73 to i32
  %75 = or i32 %70, %74
  %76 = load ptr, ptr %6, align 8, !tbaa !213
  store i32 %75, ptr %76, align 4, !tbaa !11
  store i32 0, ptr %4, align 4
  store i32 1, ptr %13, align 4
  br label %77

77:                                               ; preds = %50, %49, %45, %34, %22
  call void @llvm.lifetime.end.p0(i64 4, ptr %12) #12
  call void @llvm.lifetime.end.p0(i64 8, ptr %11) #12
  call void @llvm.lifetime.end.p0(i64 4, ptr %10) #12
  call void @llvm.lifetime.end.p0(i64 4, ptr %9) #12
  call void @llvm.lifetime.end.p0(i64 4, ptr %8) #12
  %78 = load i32, ptr %4, align 4
  ret i32 %78
}

; Function Attrs: nounwind uwtable
define internal void @finished_reading_packet(ptr noundef %0, i32 noundef %1) #0 {
  %3 = alloca ptr, align 8
  %4 = alloca i32, align 4
  %5 = alloca ptr, align 8
  %6 = alloca i32, align 4
  store ptr %0, ptr %3, align 8, !tbaa !4
  store i32 %1, ptr %4, align 4, !tbaa !11
  call void @llvm.lifetime.start.p0(i64 8, ptr %5) #12
  %7 = load ptr, ptr %3, align 8, !tbaa !4
  %8 = getelementptr inbounds nuw %struct.AVFormatContext, ptr %7, i32 0, i32 4
  %9 = load ptr, ptr %8, align 8, !tbaa !182
  store ptr %9, ptr %5, align 8, !tbaa !183
  call void @llvm.lifetime.start.p0(i64 4, ptr %6) #12
  %10 = load i32, ptr %4, align 4, !tbaa !11
  %11 = icmp eq i32 %10, 192
  br i1 %11, label %12, label %15

12:                                               ; preds = %2
  %13 = load i32, ptr %4, align 4, !tbaa !11
  %14 = sub nsw i32 %13, 192
  store i32 %14, ptr %6, align 4, !tbaa !11
  br label %18

15:                                               ; preds = %2
  %16 = load i32, ptr %4, align 4, !tbaa !11
  %17 = sub nsw i32 %16, 188
  store i32 %17, ptr %6, align 4, !tbaa !11
  br label %18

18:                                               ; preds = %15, %12
  %19 = load i32, ptr %6, align 4, !tbaa !11
  %20 = icmp sgt i32 %19, 0
  br i1 %20, label %21, label %26

21:                                               ; preds = %18
  %22 = load ptr, ptr %5, align 8, !tbaa !183
  %23 = load i32, ptr %6, align 4, !tbaa !11
  %24 = sext i32 %23 to i64
  %25 = call i64 @avio_skip(ptr noundef %22, i64 noundef %24)
  br label %26

26:                                               ; preds = %21, %18
  call void @llvm.lifetime.end.p0(i64 4, ptr %6) #12
  call void @llvm.lifetime.end.p0(i64 8, ptr %5) #12
  ret void
}

; Function Attrs: alwaysinline nounwind uwtable
define internal i64 @avio_tell(ptr noundef %0) #2 {
  %2 = alloca ptr, align 8
  store ptr %0, ptr %2, align 8, !tbaa !183
  %3 = load ptr, ptr %2, align 8, !tbaa !183
  %4 = call i64 @avio_seek(ptr noundef %3, i64 noundef 0, i32 noundef 1)
  ret i64 %4
}

; Function Attrs: nounwind uwtable
define internal i32 @mpegts_raw_read_packet(ptr noundef %0, ptr noundef %1) #0 {
  %3 = alloca i32, align 4
  %4 = alloca ptr, align 8
  %5 = alloca ptr, align 8
  %6 = alloca ptr, align 8
  %7 = alloca i32, align 4
  %8 = alloca i32, align 4
  %9 = alloca i64, align 8
  %10 = alloca i64, align 8
  %11 = alloca i64, align 8
  %12 = alloca i32, align 4
  %13 = alloca i32, align 4
  %14 = alloca [12 x i8], align 1
  %15 = alloca ptr, align 8
  %16 = alloca i32, align 4
  store ptr %0, ptr %4, align 8, !tbaa !4
  store ptr %1, ptr %5, align 8, !tbaa !164
  call void @llvm.lifetime.start.p0(i64 8, ptr %6) #12
  %17 = load ptr, ptr %4, align 8, !tbaa !4
  %18 = getelementptr inbounds nuw %struct.AVFormatContext, ptr %17, i32 0, i32 3
  %19 = load ptr, ptr %18, align 8, !tbaa !181
  store ptr %19, ptr %6, align 8, !tbaa !20
  call void @llvm.lifetime.start.p0(i64 4, ptr %7) #12
  call void @llvm.lifetime.start.p0(i64 4, ptr %8) #12
  call void @llvm.lifetime.start.p0(i64 8, ptr %9) #12
  call void @llvm.lifetime.start.p0(i64 8, ptr %10) #12
  call void @llvm.lifetime.start.p0(i64 8, ptr %11) #12
  call void @llvm.lifetime.start.p0(i64 4, ptr %12) #12
  call void @llvm.lifetime.start.p0(i64 4, ptr %13) #12
  call void @llvm.lifetime.start.p0(i64 12, ptr %14) #12
  call void @llvm.lifetime.start.p0(i64 8, ptr %15) #12
  %20 = load ptr, ptr %5, align 8, !tbaa !164
  %21 = call i32 @av_new_packet(ptr noundef %20, i32 noundef 188)
  store i32 %21, ptr %7, align 4, !tbaa !11
  %22 = icmp slt i32 %21, 0
  br i1 %22, label %23, label %25

23:                                               ; preds = %2
  %24 = load i32, ptr %7, align 4, !tbaa !11
  store i32 %24, ptr %3, align 4
  store i32 1, ptr %16, align 4
  br label %153

25:                                               ; preds = %2
  %26 = load ptr, ptr %4, align 8, !tbaa !4
  %27 = load ptr, ptr %5, align 8, !tbaa !164
  %28 = getelementptr inbounds nuw %struct.AVPacket, ptr %27, i32 0, i32 3
  %29 = load ptr, ptr %28, align 8, !tbaa !202
  %30 = load ptr, ptr %6, align 8, !tbaa !20
  %31 = getelementptr inbounds nuw %struct.MpegTSContext, ptr %30, i32 0, i32 2
  %32 = load i32, ptr %31, align 8, !tbaa !118
  %33 = call i32 @read_packet(ptr noundef %26, ptr noundef %29, i32 noundef %32, ptr noundef %15)
  store i32 %33, ptr %7, align 4, !tbaa !11
  %34 = load ptr, ptr %4, align 8, !tbaa !4
  %35 = getelementptr inbounds nuw %struct.AVFormatContext, ptr %34, i32 0, i32 4
  %36 = load ptr, ptr %35, align 8, !tbaa !182
  %37 = call i64 @avio_tell(ptr noundef %36)
  %38 = load ptr, ptr %5, align 8, !tbaa !164
  %39 = getelementptr inbounds nuw %struct.AVPacket, ptr %38, i32 0, i32 10
  store i64 %37, ptr %39, align 8, !tbaa !199
  %40 = load i32, ptr %7, align 4, !tbaa !11
  %41 = icmp slt i32 %40, 0
  br i1 %41, label %42, label %44

42:                                               ; preds = %25
  %43 = load i32, ptr %7, align 4, !tbaa !11
  store i32 %43, ptr %3, align 4
  store i32 1, ptr %16, align 4
  br label %153

44:                                               ; preds = %25
  %45 = load ptr, ptr %15, align 8, !tbaa !16
  %46 = load ptr, ptr %5, align 8, !tbaa !164
  %47 = getelementptr inbounds nuw %struct.AVPacket, ptr %46, i32 0, i32 3
  %48 = load ptr, ptr %47, align 8, !tbaa !202
  %49 = icmp ne ptr %45, %48
  br i1 %49, label %50, label %55

50:                                               ; preds = %44
  %51 = load ptr, ptr %5, align 8, !tbaa !164
  %52 = getelementptr inbounds nuw %struct.AVPacket, ptr %51, i32 0, i32 3
  %53 = load ptr, ptr %52, align 8, !tbaa !202
  %54 = load ptr, ptr %15, align 8, !tbaa !16
  call void @llvm.memcpy.p0.p0.i64(ptr align 1 %53, ptr align 1 %54, i64 188, i1 false)
  br label %55

55:                                               ; preds = %50, %44
  %56 = load ptr, ptr %4, align 8, !tbaa !4
  %57 = load ptr, ptr %6, align 8, !tbaa !20
  %58 = getelementptr inbounds nuw %struct.MpegTSContext, ptr %57, i32 0, i32 2
  %59 = load i32, ptr %58, align 8, !tbaa !118
  call void @finished_reading_packet(ptr noundef %56, i32 noundef %59)
  %60 = load ptr, ptr %6, align 8, !tbaa !20
  %61 = getelementptr inbounds nuw %struct.MpegTSContext, ptr %60, i32 0, i32 5
  %62 = load i32, ptr %61, align 4, !tbaa !203
  %63 = icmp ne i32 %62, 0
  br i1 %63, label %64, label %150

64:                                               ; preds = %55
  %65 = load ptr, ptr %5, align 8, !tbaa !164
  %66 = getelementptr inbounds nuw %struct.AVPacket, ptr %65, i32 0, i32 3
  %67 = load ptr, ptr %66, align 8, !tbaa !202
  %68 = call i32 @parse_pcr(ptr noundef %9, ptr noundef %12, ptr noundef %67)
  %69 = icmp eq i32 %68, 0
  br i1 %69, label %70, label %132

70:                                               ; preds = %64
  %71 = load ptr, ptr %4, align 8, !tbaa !4
  %72 = getelementptr inbounds nuw %struct.AVFormatContext, ptr %71, i32 0, i32 4
  %73 = load ptr, ptr %72, align 8, !tbaa !182
  %74 = call i64 @avio_tell(ptr noundef %73)
  store i64 %74, ptr %11, align 8, !tbaa !90
  store i32 0, ptr %8, align 4, !tbaa !11
  br label %75

75:                                               ; preds = %116, %70
  %76 = load i32, ptr %8, align 4, !tbaa !11
  %77 = icmp slt i32 %76, 697
  br i1 %77, label %78, label %119

78:                                               ; preds = %75
  %79 = load ptr, ptr %4, align 8, !tbaa !4
  %80 = getelementptr inbounds nuw %struct.AVFormatContext, ptr %79, i32 0, i32 4
  %81 = load ptr, ptr %80, align 8, !tbaa !182
  %82 = load i64, ptr %11, align 8, !tbaa !90
  %83 = load i32, ptr %8, align 4, !tbaa !11
  %84 = load ptr, ptr %6, align 8, !tbaa !20
  %85 = getelementptr inbounds nuw %struct.MpegTSContext, ptr %84, i32 0, i32 2
  %86 = load i32, ptr %85, align 8, !tbaa !118
  %87 = mul nsw i32 %83, %86
  %88 = sext i32 %87 to i64
  %89 = add nsw i64 %82, %88
  %90 = call i64 @avio_seek(ptr noundef %81, i64 noundef %89, i32 noundef 0)
  %91 = load ptr, ptr %4, align 8, !tbaa !4
  %92 = getelementptr inbounds nuw %struct.AVFormatContext, ptr %91, i32 0, i32 4
  %93 = load ptr, ptr %92, align 8, !tbaa !182
  %94 = getelementptr inbounds [12 x i8], ptr %14, i64 0, i64 0
  %95 = call i32 @avio_read(ptr noundef %93, ptr noundef %94, i32 noundef 12)
  %96 = getelementptr inbounds [12 x i8], ptr %14, i64 0, i64 0
  %97 = call i32 @parse_pcr(ptr noundef %10, ptr noundef %13, ptr noundef %96)
  %98 = icmp eq i32 %97, 0
  br i1 %98, label %99, label %115

99:                                               ; preds = %78
  %100 = load i64, ptr %10, align 8, !tbaa !90
  %101 = load i64, ptr %9, align 8, !tbaa !90
  %102 = sub nsw i64 %100, %101
  %103 = mul nsw i64 %102, 300
  %104 = load i32, ptr %13, align 4, !tbaa !11
  %105 = load i32, ptr %12, align 4, !tbaa !11
  %106 = sub nsw i32 %104, %105
  %107 = sext i32 %106 to i64
  %108 = add nsw i64 %103, %107
  %109 = load i32, ptr %8, align 4, !tbaa !11
  %110 = add nsw i32 %109, 1
  %111 = sext i32 %110 to i64
  %112 = sdiv i64 %108, %111
  %113 = load ptr, ptr %6, align 8, !tbaa !20
  %114 = getelementptr inbounds nuw %struct.MpegTSContext, ptr %113, i32 0, i32 8
  store i64 %112, ptr %114, align 8, !tbaa !187
  br label %119

115:                                              ; preds = %78
  br label %116

116:                                              ; preds = %115
  %117 = load i32, ptr %8, align 4, !tbaa !11
  %118 = add nsw i32 %117, 1
  store i32 %118, ptr %8, align 4, !tbaa !11
  br label %75, !llvm.loop !204

119:                                              ; preds = %99, %75
  %120 = load ptr, ptr %4, align 8, !tbaa !4
  %121 = getelementptr inbounds nuw %struct.AVFormatContext, ptr %120, i32 0, i32 4
  %122 = load ptr, ptr %121, align 8, !tbaa !182
  %123 = load i64, ptr %11, align 8, !tbaa !90
  %124 = call i64 @avio_seek(ptr noundef %122, i64 noundef %123, i32 noundef 0)
  %125 = load i64, ptr %9, align 8, !tbaa !90
  %126 = mul nsw i64 %125, 300
  %127 = load i32, ptr %12, align 4, !tbaa !11
  %128 = sext i32 %127 to i64
  %129 = add nsw i64 %126, %128
  %130 = load ptr, ptr %6, align 8, !tbaa !20
  %131 = getelementptr inbounds nuw %struct.MpegTSContext, ptr %130, i32 0, i32 7
  store i64 %129, ptr %131, align 8, !tbaa !188
  br label %132

132:                                              ; preds = %119, %64
  %133 = load ptr, ptr %6, align 8, !tbaa !20
  %134 = getelementptr inbounds nuw %struct.MpegTSContext, ptr %133, i32 0, i32 7
  %135 = load i64, ptr %134, align 8, !tbaa !188
  %136 = load ptr, ptr %5, align 8, !tbaa !164
  %137 = getelementptr inbounds nuw %struct.AVPacket, ptr %136, i32 0, i32 1
  store i64 %135, ptr %137, align 8, !tbaa !205
  %138 = load ptr, ptr %6, align 8, !tbaa !20
  %139 = getelementptr inbounds nuw %struct.MpegTSContext, ptr %138, i32 0, i32 8
  %140 = load i64, ptr %139, align 8, !tbaa !187
  %141 = load ptr, ptr %5, align 8, !tbaa !164
  %142 = getelementptr inbounds nuw %struct.AVPacket, ptr %141, i32 0, i32 9
  store i64 %140, ptr %142, align 8, !tbaa !206
  %143 = load ptr, ptr %6, align 8, !tbaa !20
  %144 = getelementptr inbounds nuw %struct.MpegTSContext, ptr %143, i32 0, i32 8
  %145 = load i64, ptr %144, align 8, !tbaa !187
  %146 = load ptr, ptr %6, align 8, !tbaa !20
  %147 = getelementptr inbounds nuw %struct.MpegTSContext, ptr %146, i32 0, i32 7
  %148 = load i64, ptr %147, align 8, !tbaa !188
  %149 = add nsw i64 %148, %145
  store i64 %149, ptr %147, align 8, !tbaa !188
  br label %150

150:                                              ; preds = %132, %55
  %151 = load ptr, ptr %5, align 8, !tbaa !164
  %152 = getelementptr inbounds nuw %struct.AVPacket, ptr %151, i32 0, i32 5
  store i32 0, ptr %152, align 4, !tbaa !162
  store i32 0, ptr %3, align 4
  store i32 1, ptr %16, align 4
  br label %153

153:                                              ; preds = %150, %42, %23
  call void @llvm.lifetime.end.p0(i64 8, ptr %15) #12
  call void @llvm.lifetime.end.p0(i64 12, ptr %14) #12
  call void @llvm.lifetime.end.p0(i64 4, ptr %13) #12
  call void @llvm.lifetime.end.p0(i64 4, ptr %12) #12
  call void @llvm.lifetime.end.p0(i64 8, ptr %11) #12
  call void @llvm.lifetime.end.p0(i64 8, ptr %10) #12
  call void @llvm.lifetime.end.p0(i64 8, ptr %9) #12
  call void @llvm.lifetime.end.p0(i64 4, ptr %8) #12
  call void @llvm.lifetime.end.p0(i64 4, ptr %7) #12
  call void @llvm.lifetime.end.p0(i64 8, ptr %6) #12
  %154 = load i32, ptr %3, align 4
  ret i32 %154
}