; Function Attrs: nounwind uwtable
define internal range(i32 -2147483648, 1) i32 @mpegts_raw_read_packet(ptr noundef %0, ptr noundef %1) #0 {
  %3 = alloca [12 x i8], align 1
  %4 = alloca ptr, align 8
  %5 = getelementptr inbounds nuw i8, ptr %0, i64 24
  %6 = load ptr, ptr %5, align 8, !tbaa !188
  call void @llvm.lifetime.start.p0(i64 12, ptr nonnull %3) #12
  call void @llvm.lifetime.start.p0(i64 8, ptr nonnull %4) #12
  %7 = tail call i32 @av_new_packet(ptr noundef %1, i32 noundef 188) #12
  %8 = icmp slt i32 %7, 0
  br i1 %8, label %133, label %9

9:                                                ; preds = %2
  %10 = getelementptr inbounds nuw i8, ptr %1, i64 24
  %11 = load ptr, ptr %10, align 8, !tbaa !156
  %12 = getelementptr inbounds nuw i8, ptr %6, i64 16
  %13 = load i32, ptr %12, align 8, !tbaa !111
  %14 = call fastcc i32 @read_packet(ptr noundef nonnull %0, ptr noundef %11, i32 noundef %13, ptr noundef %4)
  %15 = getelementptr inbounds nuw i8, ptr %0, i64 32
  %16 = load ptr, ptr %15, align 8, !tbaa !189
  %17 = call i64 @avio_seek(ptr noundef %16, i64 noundef 0, i32 noundef 1) #12
  %18 = getelementptr inbounds nuw i8, ptr %1, i64 72
  store i64 %17, ptr %18, align 8, !tbaa !203
  %19 = icmp slt i32 %14, 0
  br i1 %19, label %133, label %20

20:                                               ; preds = %9
  %21 = load ptr, ptr %4, align 8, !tbaa !4
  %22 = load ptr, ptr %10, align 8, !tbaa !156
  %.not = icmp eq ptr %21, %22
  br i1 %.not, label %24, label %23

23:                                               ; preds = %20
  call void @llvm.memcpy.p0.p0.i64(ptr noundef nonnull align 1 dereferenceable(188) %22, ptr noundef nonnull align 1 dereferenceable(188) %21, i64 188, i1 false)
  br label %24

24:                                               ; preds = %23, %20
  %25 = load i32, ptr %12, align 8, !tbaa !111
  %26 = icmp eq i32 %25, 192
  %27 = add nsw i32 %25, -188
  %.0.i = select i1 %26, i32 0, i32 %27
  %28 = icmp sgt i32 %.0.i, 0
  br i1 %28, label %29, label %finished_reading_packet.exit

29:                                               ; preds = %24
  %.val = load ptr, ptr %15, align 8, !tbaa !189
  %30 = zext nneg i32 %.0.i to i64
  %31 = call i64 @avio_skip(ptr noundef %.val, i64 noundef %30) #12
  br label %finished_reading_packet.exit

finished_reading_packet.exit:                     ; preds = %24, %29
  %32 = getelementptr inbounds nuw i8, ptr %6, i64 36
  %33 = load i32, ptr %32, align 4, !tbaa !207
  %.not41 = icmp eq i32 %33, 0
  br i1 %.not41, label %131, label %34

34:                                               ; preds = %finished_reading_packet.exit
  %35 = load ptr, ptr %10, align 8, !tbaa !156
  %36 = getelementptr inbounds nuw i8, ptr %35, i64 3
  %37 = load i8, ptr %36, align 1, !tbaa !9
  %38 = and i8 %37, 32
  %.not.not.i = icmp eq i8 %38, 0
  br i1 %.not.not.i, label %parse_pcr.exit.thread, label %39

39:                                               ; preds = %34
  %40 = getelementptr inbounds nuw i8, ptr %35, i64 4
  %41 = load i8, ptr %40, align 1, !tbaa !9
  %42 = icmp eq i8 %41, 0
  br i1 %42, label %parse_pcr.exit.thread, label %43

43:                                               ; preds = %39
  %44 = getelementptr inbounds nuw i8, ptr %35, i64 5
  %45 = load i8, ptr %44, align 1, !tbaa !9
  %46 = and i8 %45, 16
  %.not.i = icmp eq i8 %46, 0
  %47 = icmp ult i8 %41, 7
  %or.cond.i = or i1 %47, %.not.i
  br i1 %or.cond.i, label %parse_pcr.exit.thread, label %48

48:                                               ; preds = %43
  %49 = getelementptr inbounds nuw i8, ptr %35, i64 6
  %50 = load i32, ptr %49, align 1, !tbaa !9
  %51 = call i32 @llvm.bswap.i32(i32 %50)
  %52 = zext i32 %51 to i64
  %53 = shl nuw nsw i64 %52, 1
  %54 = getelementptr inbounds nuw i8, ptr %35, i64 10
  %55 = load i8, ptr %54, align 1, !tbaa !9
  %56 = lshr i8 %55, 7
  %57 = zext nneg i8 %56 to i64
  %58 = or disjoint i64 %53, %57
  %59 = and i8 %55, 1
  %60 = zext nneg i8 %59 to i32
  %61 = shl nuw nsw i32 %60, 8
  %62 = getelementptr inbounds nuw i8, ptr %35, i64 11
  %63 = load i8, ptr %62, align 1, !tbaa !9
  %64 = zext i8 %63 to i32
  %65 = or disjoint i32 %61, %64
  %66 = load ptr, ptr %15, align 8, !tbaa !189
  %67 = call i64 @avio_seek(ptr noundef %66, i64 noundef 0, i32 noundef 1) #12
  %68 = getelementptr inbounds nuw i8, ptr %3, i64 3
  %69 = getelementptr inbounds nuw i8, ptr %3, i64 4
  %70 = getelementptr inbounds nuw i8, ptr %3, i64 5
  br label %71

71:                                               ; preds = %48, %116
  %.03668 = phi i32 [ 0, %48 ], [ %117, %116 ]
  %72 = load ptr, ptr %15, align 8, !tbaa !189
  %73 = load i32, ptr %12, align 8, !tbaa !111
  %74 = mul nsw i32 %73, %.03668
  %75 = sext i32 %74 to i64
  %76 = add nsw i64 %67, %75
  %77 = call i64 @avio_seek(ptr noundef %72, i64 noundef %76, i32 noundef 0) #12
  %78 = load ptr, ptr %15, align 8, !tbaa !189
  %79 = call i32 @avio_read(ptr noundef %78, ptr noundef nonnull %3, i32 noundef 12) #12
  %80 = load i8, ptr %68, align 1, !tbaa !9
  %81 = and i8 %80, 32
  %.not.not.i43 = icmp eq i8 %81, 0
  br i1 %.not.not.i43, label %116, label %82

82:                                               ; preds = %71
  %83 = load i8, ptr %69, align 1, !tbaa !9
  %84 = icmp eq i8 %83, 0
  br i1 %84, label %116, label %85

85:                                               ; preds = %82
  %86 = load i8, ptr %70, align 1, !tbaa !9
  %87 = and i8 %86, 16
  %.not.i44 = icmp eq i8 %87, 0
  %88 = icmp ult i8 %83, 7
  %or.cond.i45 = or i1 %88, %.not.i44
  br i1 %or.cond.i45, label %116, label %89

89:                                               ; preds = %85
  %90 = getelementptr inbounds nuw i8, ptr %3, i64 6
  %91 = load i32, ptr %90, align 1, !tbaa !9
  %92 = call i32 @llvm.bswap.i32(i32 %91)
  %93 = zext i32 %92 to i64
  %94 = shl nuw nsw i64 %93, 1
  %95 = getelementptr inbounds nuw i8, ptr %3, i64 10
  %96 = load i8, ptr %95, align 1, !tbaa !9
  %97 = lshr i8 %96, 7
  %98 = zext nneg i8 %97 to i64
  %99 = and i8 %96, 1
  %100 = zext nneg i8 %99 to i32
  %101 = shl nuw nsw i32 %100, 8
  %102 = getelementptr inbounds nuw i8, ptr %3, i64 11
  %103 = load i8, ptr %102, align 1, !tbaa !9
  %104 = zext i8 %103 to i32
  %105 = sub nsw i64 %98, %58
  %106 = add nsw i64 %105, %94
  %107 = mul nsw i64 %106, 300
  %108 = sub nsw i32 %104, %65
  %109 = add nsw i32 %108, %101
  %110 = sext i32 %109 to i64
  %111 = add nsw i64 %107, %110
  %112 = add nuw nsw i32 %.03668, 1
  %113 = zext nneg i32 %112 to i64
  %114 = sdiv i64 %111, %113
  %115 = getelementptr inbounds nuw i8, ptr %6, i64 56
  store i64 %114, ptr %115, align 8, !tbaa !194
  br label %.loopexit

116:                                              ; preds = %71, %82, %85
  %117 = add nuw nsw i32 %.03668, 1
  %exitcond.not = icmp eq i32 %117, 697
  br i1 %exitcond.not, label %.loopexit, label %71, !llvm.loop !208

.loopexit:                                        ; preds = %116, %89
  %118 = load ptr, ptr %15, align 8, !tbaa !189
  %119 = call i64 @avio_seek(ptr noundef %118, i64 noundef %67, i32 noundef 0) #12
  %120 = mul nuw nsw i64 %58, 300
  %121 = zext nneg i32 %65 to i64
  %122 = add nuw nsw i64 %120, %121
  %123 = getelementptr inbounds nuw i8, ptr %6, i64 48
  store i64 %122, ptr %123, align 8, !tbaa !195
  br label %parse_pcr.exit.thread

parse_pcr.exit.thread:                            ; preds = %43, %39, %34, %.loopexit
  %124 = getelementptr inbounds nuw i8, ptr %6, i64 48
  %125 = load i64, ptr %124, align 8, !tbaa !195
  %126 = getelementptr inbounds nuw i8, ptr %1, i64 8
  store i64 %125, ptr %126, align 8, !tbaa !209
  %127 = getelementptr inbounds nuw i8, ptr %6, i64 56
  %128 = load i64, ptr %127, align 8, !tbaa !194
  %129 = getelementptr inbounds nuw i8, ptr %1, i64 64
  store i64 %128, ptr %129, align 8, !tbaa !210
  %130 = add nsw i64 %128, %125
  store i64 %130, ptr %124, align 8, !tbaa !195
  br label %131

131:                                              ; preds = %parse_pcr.exit.thread, %finished_reading_packet.exit
  %132 = getelementptr inbounds nuw i8, ptr %1, i64 36
  store i32 0, ptr %132, align 4, !tbaa !159
  br label %133

133:                                              ; preds = %9, %2, %131
  %.0 = phi i32 [ 0, %131 ], [ %7, %2 ], [ %14, %9 ]
  call void @llvm.lifetime.end.p0(i64 8, ptr nonnull %4) #12
  call void @llvm.lifetime.end.p0(i64 12, ptr nonnull %3) #12
  ret i32 %.0
}